Certificate:
    Data:
        Version: 1 (0x0)
        Serial Number: 6 (0x6)
        Signature Algorithm: md5WithRSAEncryption
        Issuer: O=CS/emailAddress=niel@rtfm.cz, L=Prague, ST=Prague, C=CS
        Validity
            Not Before: Feb 24 18:32:57 2014 GMT
            Not After : Feb 24 18:32:57 2015 GMT
        Subject: C=CS, ST=Prague, O=CS
        Subject Public Key Info:
            Public Key Algorithm: rsaEncryption
                Public-Key: (1024 bit)
                Modulus:
                    00:d1:48:9e:97:b0:66:ce:f7:8a:fc:e6:6c:67:9c:
                    7e:99:58:b5:05:02:cb:54:a7:4b:42:cf:6d:0b:70:
                    28:5f:cc:d0:cc:0f:56:16:bf:c3:34:3d:f1:7b:f2:
                    a3:d2:98:38:ce:bf:63:b0:fd:19:50:92:fb:19:56:
                    ed:7e:db:a8:e6:c7:05:54:3a:9d:b6:a0:b1:7b:16:
                    e4:f7:92:fd:77:d8:07:da:02:fd:d8:5e:6c:fe:ed:
                    de:bf:45:28:cd:b2:51:da:4a:d7:57:e6:a2:2f:47:
                    a9:90:8a:53:39:67:e9:36:e0:3a:90:cc:36:f2:e6:
                    cb:ef:d6:59:3c:2c:29:1b:75
                Exponent: 65537 (0x10001)
    Signature Algorithm: md5WithRSAEncryption
        8a:a8:ab:4e:eb:6d:f6:2c:52:cf:5f:39:02:07:d4:de:bb:fe:
        e6:67:f5:6e:f5:bf:d5:61:20:01:9a:06:ef:64:3f:d1:1d:68:
        14:20:0d:54:f9:3b:35:d9:94:fc:f1:b8:eb:59:66:7c:74:c3:
        65:84:14:51:4a:86:63:e1:a4:8a:a8:9d:0e:73:5b:d7:ff:9c:
        6b:f3:29:32:38:2e:a5:55:2a:3e:ee:f4:91:97:aa:0d:da:36:
        c8:e2:7a:d8:e2:09:cc:83:4d:58:e8:97:8f:80:5b:29:1f:6a:
        61:71:fb:e8:7f:e1:df:a9:36:e8:3b:1a:01:9f:ed:cc:30:34:
        09:f3
-----BEGIN CERTIFICATE-----
MIIB8zCCAVwCAQYwDQYJKoZIhvcNAQEEBQAwWTELMAkGA1UEChMCQ1MxGzAZBgkq
hkiG9w0BCQEWDG5pZWxAcnRmbS5jejEPMA0GA1UEBxMGUHJhZ3VlMQ8wDQYDVQQI
EwZQcmFndWUxCzAJBgNVBAYTAkNTMB4XDTE0MDIyNDE4MzI1N1oXDTE1MDIyNDE4
MzI1N1owKzELMAkGA1UEBhMCQ1MxDzANBgNVBAgTBlByYWd1ZTELMAkGA1UEChMC
Q1MwgZ8wDQYJKoZIhvcNAQEBBQADgY0AMIGJAoGBANFInpewZs73ivzmbGecfplY
tQUCy1SnS0LPbQtwKF/M0MwPVha/wzQ98Xvyo9KYOM6/Y7D9GVCS+xlW7X7bqObH
BVQ6nbagsXsW5PeS/XfYB9oC/dhebP7t3r9FKM2yUdpK11fmoi9HqZCKUzln6Tbg
OpDMNvLmy+/WWTwsKRt1AgMBAAEwDQYJKoZIhvcNAQEEBQADgYEAiqirTutt9ixS
z185AgfU3rv+5mf1bvW/1WEgAZoG72Q/0R1oFCANVPk7NdmU/PG461lmfHTDZYQU
UUqGY+GkiqidDnNb1/+ca/MpMjgupVUqPu70kZeqDdo2yOJ62OIJzINNWOiXj4Bb
KR9qYXH76H/h36k26DsaAZ/tzDA0CfM=
-----END CERTIFICATE-----
