Certificate:
    Data:
        Version: 1 (0x0)
        Serial Number: 7 (0x7)
        Signature Algorithm: md5WithRSAEncryption
        Issuer: O=CS/emailAddress=niel@rtfm.cz, L=Prague, ST=Prague, C=CS
        Validity
            Not Before: Feb 24 18:40:30 2014 GMT
            Not After : Feb 24 18:40:30 2015 GMT
        Subject: C=CS, ST=Prague, O=CS
        Subject Public Key Info:
            Public Key Algorithm: rsaEncryption
                Public-Key: (1024 bit)
                Modulus:
                    00:d1:90:76:47:a0:0a:8e:45:14:1d:a1:f4:bf:b0:
                    3e:ce:da:e5:08:77:11:70:dc:c9:9f:39:e6:5d:dc:
                    9b:4a:a4:65:0e:90:ad:e1:04:db:0e:d1:f2:75:e5:
                    83:49:00:69:09:27:22:6e:e9:e5:79:4b:32:42:0e:
                    8b:5f:ff:d2:f9:8e:79:7a:38:72:f9:55:2d:df:89:
                    3a:c1:73:f2:c2:b0:95:24:4f:eb:07:49:7b:b0:59:
                    e9:f2:c1:2d:1b:f5:2b:32:46:48:3b:92:3a:21:29:
                    cf:67:16:c6:3f:b8:be:6d:16:2f:92:9a:24:33:77:
                    d1:de:a0:ca:ae:a0:5c:02:7d
                Exponent: 65537 (0x10001)
    Signature Algorithm: md5WithRSAEncryption
        42:4f:1c:56:8c:3a:2e:89:34:db:de:24:48:c9:ca:fe:29:e0:
        1f:da:90:55:46:70:12:e8:55:bf:8d:9e:48:cd:8e:6a:56:27:
        83:5a:e3:fb:d9:8f:a7:99:54:a4:ec:ae:a4:92:08:0e:75:ab:
        b5:3e:3b:88:e6:fb:ca:3b:53:b1:53:5d:3a:60:49:60:49:89:
        2d:9f:92:0e:ac:20:ea:93:6f:89:45:d0:a8:4f:f6:2a:6d:f2:
        26:07:a4:e7:b2:4d:8b:24:57:96:21:b7:a2:a2:5b:89:2e:3a:
        ad:7a:2d:5f:47:fb:7c:61:d9:3a:56:b8:22:c8:8b:02:90:85:
        25:40
-----BEGIN CERTIFICATE-----
MIIB8zCCAVwCAQcwDQYJKoZIhvcNAQEEBQAwWTELMAkGA1UEChMCQ1MxGzAZBgkq
hkiG9w0BCQEWDG5pZWxAcnRmbS5jejEPMA0GA1UEBxMGUHJhZ3VlMQ8wDQYDVQQI
EwZQcmFndWUxCzAJBgNVBAYTAkNTMB4XDTE0MDIyNDE4NDAzMFoXDTE1MDIyNDE4
NDAzMFowKzELMAkGA1UEBhMCQ1MxDzANBgNVBAgTBlByYWd1ZTELMAkGA1UEChMC
Q1MwgZ8wDQYJKoZIhvcNAQEBBQADgY0AMIGJAoGBANGQdkegCo5FFB2h9L+wPs7a
5Qh3EXDcyZ855l3cm0qkZQ6QreEE2w7R8nXlg0kAaQknIm7p5XlLMkIOi1//0vmO
eXo4cvlVLd+JOsFz8sKwlSRP6wdJe7BZ6fLBLRv1KzJGSDuSOiEpz2cWxj+4vm0W
L5KaJDN30d6gyq6gXAJ9AgMBAAEwDQYJKoZIhvcNAQEEBQADgYEAQk8cVow6Lok0
294kSMnK/ingH9qQVUZwEuhVv42eSM2OalYng1rj+9mPp5lUpOyupJIIDnWrtT47
iOb7yjtTsVNdOmBJYEmJLZ+SDqwg6pNviUXQqE/2Km3yJgek57JNiyRXliG3oqJb
iS46rXotX0f7fGHZOla4IsiLApCFJUA=
-----END CERTIFICATE-----
