Certificate:
    Data:
        Version: 1 (0x0)
        Serial Number: 8 (0x8)
        Signature Algorithm: md5WithRSAEncryption
        Issuer: O=CS/emailAddress=niel@rtfm.cz, L=Prague, ST=Prague, C=CS, CN=CAAAA
        Validity
            Not Before: Feb 24 18:43:41 2014 GMT
            Not After : Feb 24 18:43:41 2015 GMT
        Subject: C=CS, ST=Prague, O=CS, CN=CASERVER
        Subject Public Key Info:
            Public Key Algorithm: rsaEncryption
                Public-Key: (1024 bit)
                Modulus:
                    00:db:77:e9:7c:0c:61:ce:af:1c:2c:cc:b8:07:22:
                    84:d9:da:93:36:61:1b:65:dd:1c:4e:16:2d:d2:01:
                    25:47:6a:25:e5:2d:71:31:7a:f0:bd:a3:9f:72:fc:
                    b0:d6:86:aa:8a:f9:bc:21:16:3f:1a:cc:b1:c7:56:
                    4c:a1:bf:c4:99:59:29:84:93:7e:37:12:5b:95:78:
                    ac:1d:2a:66:6c:14:14:0b:4a:eb:89:08:ee:c7:f3:
                    56:e1:e4:6b:a9:49:f1:70:a5:bd:df:17:57:15:73:
                    56:8c:8e:d2:f9:27:85:c3:62:16:d2:4a:91:31:01:
                    bb:48:a0:53:26:fa:22:27:05
                Exponent: 65537 (0x10001)
    Signature Algorithm: md5WithRSAEncryption
        b6:02:53:32:c9:22:8c:8b:a6:29:9f:2a:7b:c6:28:df:e7:bd:
        27:1a:b6:49:0f:98:79:29:f4:92:42:48:29:6b:db:15:5e:71:
        a9:0b:ec:8c:f6:a9:ff:fd:35:f5:e2:d1:3d:03:0f:f5:66:8d:
        6a:6d:a0:c4:c3:43:5b:ca:08:ed:94:fa:b2:3c:7a:91:bc:7a:
        15:41:62:23:82:72:e3:27:c1:91:ce:04:e4:d3:46:e4:38:c7:
        62:b1:0b:e9:ff:7b:88:a3:d1:7f:1d:98:c0:74:2f:e2:d2:1d:
        ee:c1:43:c0:9e:81:7a:f3:6c:74:24:e2:ec:54:e0:46:b9:30:
        47:2f
-----BEGIN CERTIFICATE-----
MIICFjCCAX8CAQgwDQYJKoZIhvcNAQEEBQAwaTELMAkGA1UEChMCQ1MxGzAZBgkq
hkiG9w0BCQEWDG5pZWxAcnRmbS5jejEPMA0GA1UEBxMGUHJhZ3VlMQ8wDQYDVQQI
EwZQcmFndWUxCzAJBgNVBAYTAkNTMQ4wDAYDVQQDEwVDQUFBQTAeFw0xNDAyMjQx
ODQzNDFaFw0xNTAyMjQxODQzNDFaMD4xCzAJBgNVBAYTAkNTMQ8wDQYDVQQIEwZQ
cmFndWUxCzAJBgNVBAoTAkNTMREwDwYDVQQDEwhDQVNFUlZFUjCBnzANBgkqhkiG
9w0BAQEFAAOBjQAwgYkCgYEA23fpfAxhzq8cLMy4ByKE2dqTNmEbZd0cThYt0gEl
R2ol5S1xMXrwvaOfcvyw1oaqivm8IRY/Gsyxx1ZMob/EmVkphJN+NxJblXisHSpm
bBQUC0rriQjux/NW4eRrqUnxcKW93xdXFXNWjI7S+SeFw2IW0kqRMQG7SKBTJvoi
JwUCAwEAATANBgkqhkiG9w0BAQQFAAOBgQC2AlMyySKMi6Ypnyp7xijf570nGrZJ
D5h5KfSSQkgpa9sVXnGpC+yM9qn//TX14tE9Aw/1Zo1qbaDEw0NbygjtlPqyPHqR
vHoVQWIjgnLjJ8GRzgTk00bkOMdisQvp/3uIo9F/HZjAdC/i0h3uwUPAnoF682x0
JOLsVOBGuTBHLw==
-----END CERTIFICATE-----
