Certificate:
    Data:
        Version: 1 (0x0)
        Serial Number: 10 (0xa)
    Signature Algorithm: md5WithRSAEncryption
        Issuer: O=CS/emailAddress=niel@rtfm.cz, L=Prague, ST=Prague, C=CS, CN=CAAAA
        Validity
            Not Before: Feb 27 04:25:00 2015 GMT
            Not After : Feb 27 04:25:00 2016 GMT
        Subject: C=CS, ST=Prague, O=CS
        Subject Public Key Info:
            Public Key Algorithm: rsaEncryption
                Public-Key: (1024 bit)
                Modulus:
                    00:ec:b3:37:6c:cc:2c:d0:4f:4b:c8:84:3d:c2:92:
                    45:f2:0f:52:72:60:0a:77:fe:23:df:6c:cc:bd:20:
                    fe:d6:40:c0:bc:45:b4:e9:82:99:d4:32:bf:e3:98:
                    be:6a:01:55:9e:1e:db:90:b9:3e:db:06:6c:5d:4b:
                    d5:a1:b0:89:dc:fb:cf:80:5d:4b:d9:92:6e:5b:26:
                    68:86:74:31:a1:a3:60:85:84:a0:6d:c6:e7:9f:cc:
                    5e:e2:84:f2:b9:19:59:69:a6:8e:2e:a0:63:9b:0e:
                    9e:4b:49:a2:e0:28:b8:92:6b:f7:e2:fa:e3:03:5c:
                    4b:7b:22:9e:4d:0c:50:98:e3
                Exponent: 65537 (0x10001)
    Signature Algorithm: md5WithRSAEncryption
         70:c7:e8:35:c3:ac:42:19:bd:a5:14:25:70:9c:0a:2a:1a:ed:
         e2:de:b3:1e:0d:1f:2d:1b:16:d9:39:44:e3:c1:cc:f4:fd:37:
         3b:e6:3a:ba:fb:59:7c:9d:29:f1:33:13:fd:af:5f:1b:f3:23:
         1d:21:a4:62:06:49:c8:95:51:2d:0e:1d:9d:14:72:62:79:31:
         a8:d1:e9:28:b5:c2:dd:a7:d0:b0:22:64:6f:34:56:7a:9b:e0:
         1b:a6:13:9f:30:80:8c:bc:f5:c7:91:05:ef:00:11:a8:f5:95:
         f4:e8:a3:ea:b0:e4:35:7d:e2:a7:cc:38:cd:81:1d:f4:e5:55:
         97:a5
-----BEGIN CERTIFICATE-----
MIICAzCCAWwCAQowDQYJKoZIhvcNAQEEBQAwaTELMAkGA1UEChMCQ1MxGzAZBgkq
hkiG9w0BCQEWDG5pZWxAcnRmbS5jejEPMA0GA1UEBxMGUHJhZ3VlMQ8wDQYDVQQI
EwZQcmFndWUxCzAJBgNVBAYTAkNTMQ4wDAYDVQQDEwVDQUFBQTAeFw0xNTAyMjcw
NDI1MDBaFw0xNjAyMjcwNDI1MDBaMCsxCzAJBgNVBAYTAkNTMQ8wDQYDVQQIEwZQ
cmFndWUxCzAJBgNVBAoTAkNTMIGfMA0GCSqGSIb3DQEBAQUAA4GNADCBiQKBgQDs
szdszCzQT0vIhD3CkkXyD1JyYAp3/iPfbMy9IP7WQMC8RbTpgpnUMr/jmL5qAVWe
HtuQuT7bBmxdS9WhsInc+8+AXUvZkm5bJmiGdDGho2CFhKBtxuefzF7ihPK5GVlp
po4uoGObDp5LSaLgKLiSa/fi+uMDXEt7Ip5NDFCY4wIDAQABMA0GCSqGSIb3DQEB
BAUAA4GBAHDH6DXDrEIZvaUUJXCcCioa7eLesx4NHy0bFtk5ROPBzPT9NzvmOrr7
WXydKfEzE/2vXxvzIx0hpGIGSciVUS0OHZ0UcmJ5MajR6Si1wt2n0LAiZG80Vnqb
4BumE58wgIy89ceRBe8AEaj1lfToo+qw5DV94qfMOM2BHfTlVZel
-----END CERTIFICATE-----
