Certificate:
    Data:
        Version: 1 (0x0)
        Serial Number: 11 (0xb)
    Signature Algorithm: md5WithRSAEncryption
        Issuer: O=CS/emailAddress=niel@rtfm.cz, L=Prague, ST=Prague, C=CS, CN=CAAAA
        Validity
            Not Before: Feb 27 04:26:57 2015 GMT
            Not After : Feb 27 04:26:57 2016 GMT
        Subject: C=CS, ST=Prague, O=CS, OU=CZ, CN=aaa.anect.cz
        Subject Public Key Info:
            Public Key Algorithm: rsaEncryption
                Public-Key: (1024 bit)
                Modulus:
                    00:a0:7c:75:2b:07:73:c2:82:12:67:b5:78:bb:99:
                    0b:e9:7e:c9:08:06:c1:d4:51:7d:e7:cf:5f:2b:84:
                    12:c1:f9:a7:a0:82:bb:b5:1e:1f:0d:5d:34:5d:3d:
                    5f:bf:c4:33:79:c0:f7:1d:43:c5:d0:f4:c0:b9:99:
                    f0:12:4c:f1:f0:d5:ee:c1:be:da:75:b6:d3:0f:fc:
                    14:b9:da:45:99:bd:43:bd:0d:a9:05:a5:40:61:08:
                    b0:1b:a5:04:82:e0:93:34:7c:49:eb:50:7c:4b:30:
                    bd:c9:43:f3:97:00:31:a5:77:f4:8d:ee:84:20:92:
                    46:b2:92:1a:d1:71:14:eb:01
                Exponent: 65537 (0x10001)
    Signature Algorithm: md5WithRSAEncryption
         54:25:40:f8:14:a2:a7:45:3f:d6:8d:5b:12:23:5e:e3:5a:fe:
         c4:1f:c7:45:71:7e:9b:d5:13:3e:35:99:9c:06:0e:68:e4:f8:
         1f:87:4c:1c:a1:b3:af:62:3e:c2:cf:89:e7:75:ff:21:1e:66:
         50:c5:cf:07:2b:65:76:1a:82:04:98:53:cd:b2:b4:9e:c9:c9:
         37:e6:79:99:c8:bb:f0:17:03:ff:ac:5a:52:d8:15:64:ee:54:
         87:a4:13:a7:02:9d:d1:50:94:68:10:16:de:c2:a7:9f:27:15:
         5e:e2:03:ce:62:d1:f0:96:2d:e3:c4:e8:ec:c1:f3:39:9b:85:
         da:71
-----BEGIN CERTIFICATE-----
MIICJzCCAZACAQswDQYJKoZIhvcNAQEEBQAwaTELMAkGA1UEChMCQ1MxGzAZBgkq
hkiG9w0BCQEWDG5pZWxAcnRmbS5jejEPMA0GA1UEBxMGUHJhZ3VlMQ8wDQYDVQQI
EwZQcmFndWUxCzAJBgNVBAYTAkNTMQ4wDAYDVQQDEwVDQUFBQTAeFw0xNTAyMjcw
NDI2NTdaFw0xNjAyMjcwNDI2NTdaME8xCzAJBgNVBAYTAkNTMQ8wDQYDVQQIEwZQ
cmFndWUxCzAJBgNVBAoTAkNTMQswCQYDVQQLEwJDWjEVMBMGA1UEAxMMYWFhLmFu
ZWN0LmN6MIGfMA0GCSqGSIb3DQEBAQUAA4GNADCBiQKBgQCgfHUrB3PCghJntXi7
mQvpfskIBsHUUX3nz18rhBLB+aeggru1Hh8NXTRdPV+/xDN5wPcdQ8XQ9MC5mfAS
TPHw1e7Bvtp1ttMP/BS52kWZvUO9DakFpUBhCLAbpQSC4JM0fEnrUHxLML3JQ/OX
ADGld/SN7oQgkkaykhrRcRTrAQIDAQABMA0GCSqGSIb3DQEBBAUAA4GBAFQlQPgU
oqdFP9aNWxIjXuNa/sQfx0VxfpvVEz41mZwGDmjk+B+HTByhs69iPsLPied1/yEe
ZlDFzwcrZXYaggSYU82ytJ7JyTfmeZnIu/AXA/+sWlLYFWTuVIekE6cCndFQlGgQ
Ft7Cp58nFV7iA85i0fCWLePE6OzB8zmbhdpx
-----END CERTIFICATE-----
