Certificate:
    Data:
        Version: 1 (0x0)
        Serial Number: 12 (0xc)
    Signature Algorithm: md5WithRSAEncryption
        Issuer: O=CS, OU=CS/emailAddress=niel@rtfm.cz, L=Prague, ST=Prague, C=CS, CN=aaa.anect.cz
        Validity
            Not Before: Feb 27 04:33:28 2015 GMT
            Not After : Feb 27 04:33:28 2016 GMT
        Subject: C=CS, ST=Prague, O=CS, OU=devel, CN=aaa.anect.cz
        Subject Public Key Info:
            Public Key Algorithm: rsaEncryption
                Public-Key: (1024 bit)
                Modulus:
                    00:ab:75:d0:86:39:bd:2d:61:70:60:87:93:c0:a9:
                    54:9b:c6:16:69:a6:c8:48:e0:7e:24:1b:ec:04:47:
                    20:d5:56:04:d9:ab:d5:3b:9d:ec:41:80:be:0e:02:
                    67:cb:76:2a:18:95:75:8b:3e:40:4f:f2:ae:ec:11:
                    f8:13:2d:8d:51:99:83:14:ac:e9:9f:6b:9e:b8:94:
                    60:43:32:2b:c7:4e:9c:3c:c3:16:fb:00:1e:ab:ef:
                    48:ad:6a:48:51:ab:51:e3:0d:6b:ec:32:29:a6:7a:
                    5b:c2:d5:9a:37:6d:f8:52:e8:3a:7b:79:63:20:f6:
                    2f:99:97:ac:3e:73:40:da:31
                Exponent: 65537 (0x10001)
    Signature Algorithm: md5WithRSAEncryption
         84:26:6e:28:dc:ef:14:e6:9d:a9:6c:6f:5a:3e:32:94:ad:55:
         d6:8c:5d:76:c4:3b:2e:ba:0c:50:6f:72:a3:6a:98:d3:96:23:
         e5:4a:c6:b5:14:8e:95:a7:bd:0b:36:fe:51:10:b3:bd:74:12:
         6e:8b:92:b3:24:e5:50:a7:eb:9c:0a:71:70:8f:ac:48:6e:5a:
         2b:bd:1e:6a:95:ad:e3:0a:a5:6a:95:89:f4:74:fb:f0:d0:20:
         95:9e:92:6e:45:d5:5b:89:43:11:10:96:28:be:a0:3a:ae:19:
         05:98:85:b6:07:59:90:b9:2e:33:cd:8d:51:a2:15:2d:1d:c6:
         16:29
-----BEGIN CERTIFICATE-----
MIICPjCCAacCAQwwDQYJKoZIhvcNAQEEBQAwfTELMAkGA1UEChMCQ1MxCzAJBgNV
BAsTAkNTMRswGQYJKoZIhvcNAQkBFgxuaWVsQHJ0Zm0uY3oxDzANBgNVBAcTBlBy
YWd1ZTEPMA0GA1UECBMGUHJhZ3VlMQswCQYDVQQGEwJDUzEVMBMGA1UEAxMMYWFh
LmFuZWN0LmN6MB4XDTE1MDIyNzA0MzMyOFoXDTE2MDIyNzA0MzMyOFowUjELMAkG
A1UEBhMCQ1MxDzANBgNVBAgTBlByYWd1ZTELMAkGA1UEChMCQ1MxDjAMBgNVBAsT
BWRldmVsMRUwEwYDVQQDEwxhYWEuYW5lY3QuY3owgZ8wDQYJKoZIhvcNAQEBBQAD
gY0AMIGJAoGBAKt10IY5vS1hcGCHk8CpVJvGFmmmyEjgfiQb7ARHINVWBNmr1Tud
7EGAvg4CZ8t2KhiVdYs+QE/yruwR+BMtjVGZgxSs6Z9rnriUYEMyK8dOnDzDFvsA
HqvvSK1qSFGrUeMNa+wyKaZ6W8LVmjdt+FLoOnt5YyD2L5mXrD5zQNoxAgMBAAEw
DQYJKoZIhvcNAQEEBQADgYEAhCZuKNzvFOadqWxvWj4ylK1V1oxddsQ7LroMUG9y
o2qY05Yj5UrGtRSOlae9Czb+URCzvXQSbouSsyTlUKfrnApxcI+sSG5aK70eapWt
4wqlapWJ9HT78NAglZ6SbkXVW4lDERCWKL6gOq4ZBZiFtgdZkLkuM82NUaIVLR3G
Fik=
-----END CERTIFICATE-----
