Certificate:
    Data:
        Version: 1 (0x0)
        Serial Number: 9 (0x9)
        Signature Algorithm: md5WithRSAEncryption
        Issuer: O=CS/emailAddress=niel@rtfm.cz, L=Prague, ST=Prague, C=CS, CN=CAAAA
        Validity
            Not Before: Feb 24 18:43:58 2014 GMT
            Not After : Feb 24 18:43:58 2015 GMT
        Subject: C=CS, ST=Prague, O=CS, CN=CACLIENT
        Subject Public Key Info:
            Public Key Algorithm: rsaEncryption
                Public-Key: (1024 bit)
                Modulus:
                    00:b0:5a:75:96:3d:d1:ba:6d:f7:94:ff:60:26:43:
                    2e:a7:51:aa:41:35:46:bf:79:16:c2:83:b1:75:01:
                    61:a0:13:7d:14:db:5d:af:24:ee:15:23:fe:16:e3:
                    cd:3d:32:00:46:43:b6:7f:54:c0:6b:e3:5c:8a:29:
                    b7:8e:34:56:2f:e7:ce:c1:3d:93:65:7a:2d:18:16:
                    78:0e:eb:6e:83:1b:71:e8:d1:4e:3b:88:d7:b8:50:
                    fd:d7:90:53:d8:6b:12:d0:b0:be:11:76:00:2f:4e:
                    d7:3f:18:de:50:d7:8a:bd:3a:6e:92:36:df:96:b5:
                    22:df:00:29:dc:f7:8e:42:29
                Exponent: 65537 (0x10001)
    Signature Algorithm: md5WithRSAEncryption
        99:4e:37:8d:fc:75:fb:1f:97:9e:72:e5:86:4c:a2:d3:47:51:
        74:79:83:bf:c2:cc:7a:d2:cc:d3:b9:65:a1:cd:89:d6:10:ed:
        31:c2:6c:90:35:ed:f6:d3:94:3c:86:43:f6:57:bf:b4:f0:94:
        33:7a:6b:78:7f:0b:93:d6:c3:7a:82:df:90:1e:94:6a:92:64:
        c4:db:61:bf:ff:10:93:74:c1:5e:77:30:30:a2:64:02:e6:3d:
        48:9b:ad:83:18:e3:f3:38:65:25:9c:ad:7d:57:35:ae:37:7f:
        53:e3:3f:99:97:1d:aa:b2:d5:75:2b:38:c4:79:63:e0:28:3c:
        6b:4a
-----BEGIN CERTIFICATE-----
MIICFjCCAX8CAQkwDQYJKoZIhvcNAQEEBQAwaTELMAkGA1UEChMCQ1MxGzAZBgkq
hkiG9w0BCQEWDG5pZWxAcnRmbS5jejEPMA0GA1UEBxMGUHJhZ3VlMQ8wDQYDVQQI
EwZQcmFndWUxCzAJBgNVBAYTAkNTMQ4wDAYDVQQDEwVDQUFBQTAeFw0xNDAyMjQx
ODQzNThaFw0xNTAyMjQxODQzNThaMD4xCzAJBgNVBAYTAkNTMQ8wDQYDVQQIEwZQ
cmFndWUxCzAJBgNVBAoTAkNTMREwDwYDVQQDEwhDQUNMSUVOVDCBnzANBgkqhkiG
9w0BAQEFAAOBjQAwgYkCgYEAsFp1lj3Rum33lP9gJkMup1GqQTVGv3kWwoOxdQFh
oBN9FNtdryTuFSP+FuPNPTIARkO2f1TAa+Nciim3jjRWL+fOwT2TZXotGBZ4Dutu
gxtx6NFOO4jXuFD915BT2GsS0LC+EXYAL07XPxjeUNeKvTpukjbflrUi3wAp3PeO
QikCAwEAATANBgkqhkiG9w0BAQQFAAOBgQCZTjeN/HX7H5eecuWGTKLTR1F0eYO/
wsx60szTuWWhzYnWEO0xwmyQNe3205Q8hkP2V7+08JQzemt4fwuT1sN6gt+QHpRq
kmTE22G//xCTdMFedzAwomQC5j1Im62DGOPzOGUlnK19VzWuN39T4z+Zlx2qstV1
KzjEeWPgKDxrSg==
-----END CERTIFICATE-----
